target datalayout = "e-m:e-p270:32:32-p271:32:32-p272:64:64-i64:64-i128:128-f80:128-n8:16:32:64-S128"
target triple = "x86_64-unknown-linux-gnu"

%"class.node::permission::Permission" = type <{ %"class.std::unordered_map", i8, [7 x i8] }>
%"class.std::unordered_map" = type { %"class.std::_Hashtable" }
%"class.std::_Hashtable" = type { ptr, i64, %"struct.std::__detail::_Hash_node_base", i64, %"struct.std::__detail::_Prime_rehash_policy", ptr }
%"struct.std::__detail::_Hash_node_base" = type { ptr }
%"struct.std::__detail::_Prime_rehash_policy" = type { float, i64 }

; Function Attrs: mustprogress nounwind uwtable
define dso_local void @_ZN4node10permission10Permission17EnablePermissionsEv(ptr noundef nonnull align 8 dereferenceable(57) %this) #4 align 2 {
entry:
  %this.addr = alloca ptr, align 8
  store ptr %this, ptr %this.addr, align 8
  %this1 = load ptr, ptr %this.addr, align 8
  %enabled_ = getelementptr inbounds %"class.node::permission::Permission", ptr %this1, i32 0, i32 1
  %0 = load i8, ptr %enabled_, align 8
  %tobool = trunc i8 %0 to i1
  br i1 %tobool, label %if.end, label %if.then

if.then:                                          ; preds = %entry
  %enabled_2 = getelementptr inbounds %"class.node::permission::Permission", ptr %this1, i32 0, i32 1
  store i8 1, ptr %enabled_2, align 8
  br label %if.end

if.end:                                           ; preds = %if.then, %entry
  ret void
}