; Function Attrs: mustprogress nofree norecurse nosync nounwind willreturn memory(argmem: readwrite) uwtable
define dso_local void @_ZN4node10permission10Permission17EnablePermissionsEv(ptr nocapture noundef nonnull align 8 dereferenceable(57) %this) local_unnamed_addr #6 align 2 {
entry:
  %enabled_ = getelementptr inbounds i8, ptr %this, i64 56
  %0 = load i8, ptr %enabled_, align 8
  %1 = and i8 %0, 1
  %tobool.not = icmp eq i8 %1, 0
  br i1 %tobool.not, label %if.then, label %if.end

if.then:                                          ; preds = %entry
  store i8 1, ptr %enabled_, align 8
  br label %if.end

if.end:                                           ; preds = %if.then, %entry
  ret void
}